target datalayout = "e-m:e-p270:32:32-p271:32:32-p272:64:64-i64:64-i128:128-f80:128-n8:16:32:64-S128"
target triple = "x86_64-pc-linux-gnu"

%struct._object = type { %union.anon.26, ptr }
%union.anon.26 = type { i64 }
%struct._typeobject = type { %struct.PyVarObject, ptr, i64, i64, ptr, i64, ptr, ptr, ptr, ptr, ptr, ptr, ptr, ptr, ptr, ptr, ptr, ptr, ptr, i64, ptr, ptr, ptr, ptr, i64, ptr, ptr, ptr, ptr, ptr, ptr, ptr, ptr, ptr, i64, ptr, ptr, ptr, ptr, ptr, ptr, ptr, ptr, ptr, ptr, ptr, i32, ptr, ptr, i8, i16 }
%struct.PyVarObject = type { %struct._object, i64 }
%struct.PyTupleObject = type { %struct.PyVarObject, [1 x ptr] }

@.str.28 = private unnamed_addr constant [3 x i8] c", \00", align 1
@PyTuple_Type = external global %struct._typeobject, align 8
@.str.51 = private unnamed_addr constant [2 x i8] c",\00", align 1

; Function Attrs: inlinehint nounwind uwtable
define internal i64 @Py_SIZE(ptr noundef %0) #3 {
  %2 = alloca ptr, align 8
  store ptr %0, ptr %2, align 8, !tbaa !16
  %3 = load ptr, ptr %2, align 8, !tbaa !16
  %4 = getelementptr inbounds nuw %struct.PyVarObject, ptr %3, i32 0, i32 1
  %5 = load i64, ptr %4, align 8, !tbaa !74
  ret i64 %5
}

; Function Attrs: inlinehint nounwind uwtable
define internal ptr @_Py_TYPE(ptr noundef %0) #3 {
  %2 = alloca ptr, align 8
  store ptr %0, ptr %2, align 8, !tbaa !16
  %3 = load ptr, ptr %2, align 8, !tbaa !16
  %4 = getelementptr inbounds nuw %struct._object, ptr %3, i32 0, i32 1
  %5 = load ptr, ptr %4, align 8, !tbaa !72
  ret ptr %5
}

; Function Attrs: nounwind uwtable
define internal i32 @append_charp(ptr noundef %0, ptr noundef %1) #0 {
  %3 = alloca ptr, align 8
  %4 = alloca ptr, align 8
  store ptr %0, ptr %3, align 8, !tbaa !11
  store ptr %1, ptr %4, align 8, !tbaa !18
  %5 = load ptr, ptr %3, align 8, !tbaa !11
  %6 = load ptr, ptr %4, align 8, !tbaa !18
  %7 = call i32 @PyUnicodeWriter_WriteUTF8(ptr noundef %5, ptr noundef %6, i64 noundef -1)
  ret i32 %7
}

; Function Attrs: nounwind uwtable
define internal i32 @append_char(ptr noundef %0, i32 noundef %1) #0 {
  %3 = alloca ptr, align 8
  %4 = alloca i32, align 4
  store ptr %0, ptr %3, align 8, !tbaa !11
  store i32 %1, ptr %4, align 4, !tbaa !9
  %5 = load ptr, ptr %3, align 8, !tbaa !11
  %6 = load i32, ptr %4, align 4, !tbaa !9
  %7 = call i32 @PyUnicodeWriter_WriteChar(ptr noundef %5, i32 noundef %6)
  ret i32 %7
}

; Function Attrs: inlinehint nounwind uwtable
define internal i64 @PyTuple_GET_SIZE(ptr noundef %0) #3 {
  %2 = alloca ptr, align 8
  %3 = alloca ptr, align 8
  store ptr %0, ptr %2, align 8, !tbaa !16
  call void @llvm.lifetime.start.p0(i64 8, ptr %3) #6
  %4 = load ptr, ptr %2, align 8, !tbaa !16
  store ptr %4, ptr %3, align 8, !tbaa !20
  %5 = load ptr, ptr %3, align 8, !tbaa !20
  %6 = call i64 @Py_SIZE(ptr noundef %5)
  call void @llvm.lifetime.end.p0(i64 8, ptr %3) #6
  ret i64 %6
}

; Function Attrs: inlinehint nounwind uwtable
define internal i32 @Py_IS_TYPE(ptr noundef %0, ptr noundef %1) #3 {
  %3 = alloca ptr, align 8
  %4 = alloca ptr, align 8
  store ptr %0, ptr %3, align 8, !tbaa !16
  store ptr %1, ptr %4, align 8, !tbaa !70
  %5 = load ptr, ptr %3, align 8, !tbaa !16
  %6 = call ptr @_Py_TYPE(ptr noundef %5)
  %7 = load ptr, ptr %4, align 8, !tbaa !70
  %8 = icmp eq ptr %6, %7
  %9 = zext i1 %8 to i32
  ret i32 %9
}

; Function Attrs: nounwind uwtable
define internal i32 @append_ast_constant(ptr noundef %0, ptr noundef %1) #0 {
  %3 = alloca i32, align 4
  %4 = alloca ptr, align 8
  %5 = alloca ptr, align 8
  %6 = alloca i64, align 8
  %7 = alloca i64, align 8
  %8 = alloca i32, align 4
  store ptr %0, ptr %4, align 8, !tbaa !11
  store ptr %1, ptr %5, align 8, !tbaa !16
  %9 = load ptr, ptr %5, align 8, !tbaa !16
  %10 = call i32 @Py_IS_TYPE(ptr noundef %9, ptr noundef @PyTuple_Type)
  %11 = icmp ne i32 %10, 0
  br i1 %11, label %12, label %72

12:                                               ; preds = %2
  call void @llvm.lifetime.start.p0(i64 8, ptr %6) #6
  call void @llvm.lifetime.start.p0(i64 8, ptr %7) #6
  %13 = load ptr, ptr %5, align 8, !tbaa !16
  %14 = call i64 @PyTuple_GET_SIZE(ptr noundef %13)
  store i64 %14, ptr %7, align 8, !tbaa !24
  br label %15

15:                                               ; preds = %12
  %16 = load ptr, ptr %4, align 8, !tbaa !11
  %17 = call i32 @append_char(ptr noundef %16, i32 noundef 40)
  %18 = icmp eq i32 -1, %17
  br i1 %18, label %19, label %20

19:                                               ; preds = %15
  store i32 -1, ptr %3, align 4
  store i32 1, ptr %8, align 4
  br label %69

20:                                               ; preds = %15
  br label %21

21:                                               ; preds = %20
  br label %22

22:                                               ; preds = %21
  store i64 0, ptr %6, align 8, !tbaa !24
  br label %23

23:                                               ; preds = %49, %22
  %24 = load i64, ptr %6, align 8, !tbaa !24
  %25 = load i64, ptr %7, align 8, !tbaa !24
  %26 = icmp slt i64 %24, %25
  br i1 %26, label %27, label %52

27:                                               ; preds = %23
  br label %28

28:                                               ; preds = %27
  %29 = load i64, ptr %6, align 8, !tbaa !24
  %30 = icmp sgt i64 %29, 0
  br i1 %30, label %31, label %36

31:                                               ; preds = %28
  %32 = load ptr, ptr %4, align 8, !tbaa !11
  %33 = call i32 @append_charp(ptr noundef %32, ptr noundef @.str.28)
  %34 = icmp eq i32 -1, %33
  br i1 %34, label %35, label %36

35:                                               ; preds = %31
  store i32 -1, ptr %3, align 4
  store i32 1, ptr %8, align 4
  br label %69

36:                                               ; preds = %31, %28
  br label %37

37:                                               ; preds = %36
  br label %38

38:                                               ; preds = %37
  %39 = load ptr, ptr %4, align 8, !tbaa !11
  %40 = load ptr, ptr %5, align 8, !tbaa !16
  %41 = getelementptr inbounds nuw %struct.PyTupleObject, ptr %40, i32 0, i32 1
  %42 = load i64, ptr %6, align 8, !tbaa !24
  %43 = getelementptr [1 x ptr], ptr %41, i64 0, i64 %42
  %44 = load ptr, ptr %43, align 8, !tbaa !16
  %45 = call i32 @append_ast_constant(ptr noundef %39, ptr noundef %44)
  %46 = icmp slt i32 %45, 0
  br i1 %46, label %47, label %48

47:                                               ; preds = %38
  store i32 -1, ptr %3, align 4
  store i32 1, ptr %8, align 4
  br label %69

48:                                               ; preds = %38
  br label %49

49:                                               ; preds = %48
  %50 = load i64, ptr %6, align 8, !tbaa !24
  %51 = add i64 %50, 1
  store i64 %51, ptr %6, align 8, !tbaa !24
  br label %23, !llvm.loop !42

52:                                               ; preds = %23
  br label %53

53:                                               ; preds = %52
  %54 = load i64, ptr %7, align 8, !tbaa !24
  %55 = icmp eq i64 %54, 1
  br i1 %55, label %56, label %61

56:                                               ; preds = %53
  %57 = load ptr, ptr %4, align 8, !tbaa !11
  %58 = call i32 @append_charp(ptr noundef %57, ptr noundef @.str.51)
  %59 = icmp eq i32 -1, %58
  br i1 %59, label %60, label %61

60:                                               ; preds = %56
  store i32 -1, ptr %3, align 4
  store i32 1, ptr %8, align 4
  br label %69

61:                                               ; preds = %56, %53
  br label %62

62:                                               ; preds = %61
  br label %63

63:                                               ; preds = %62
  br label %64

64:                                               ; preds = %63
  %65 = load ptr, ptr %4, align 8, !tbaa !11
  %66 = call i32 @append_char(ptr noundef %65, i32 noundef 41)
  store i32 %66, ptr %3, align 4
  store i32 1, ptr %8, align 4
  br label %69

67:                                               ; No predecessors!
  br label %68

68:                                               ; preds = %67
  store i32 0, ptr %8, align 4
  br label %69

69:                                               ; preds = %68, %64, %60, %47, %35, %19
  call void @llvm.lifetime.end.p0(i64 8, ptr %7) #6
  call void @llvm.lifetime.end.p0(i64 8, ptr %6) #6
  %70 = load i32, ptr %8, align 4
  switch i32 %70, label %78 [
    i32 0, label %71
    i32 1, label %76
  ]

71:                                               ; preds = %69
  br label %72

72:                                               ; preds = %71, %2
  %73 = load ptr, ptr %4, align 8, !tbaa !11
  %74 = load ptr, ptr %5, align 8, !tbaa !16
  %75 = call i32 @append_repr(ptr noundef %73, ptr noundef %74)
  store i32 %75, ptr %3, align 4
  br label %76

76:                                               ; preds = %72, %69
  %77 = load i32, ptr %3, align 4
  ret i32 %77

78:                                               ; preds = %69
  unreachable
}