; Function Attrs: nounwind uwtable
define internal fastcc i32 @append_ast_constant(ptr noundef nonnull %0, ptr noundef %1) unnamed_addr #0 {
  %3 = getelementptr i8, ptr %1, i64 8
  %.val = load ptr, ptr %3, align 8, !tbaa !36
  %.not = icmp eq ptr %.val, @PyTuple_Type
  br i1 %.not, label %4, label %26

4:                                                ; preds = %2
  %5 = getelementptr i8, ptr %1, i64 16
  %.val19 = load i64, ptr %5, align 8, !tbaa !44
  %6 = tail call i32 @PyUnicodeWriter_WriteChar(ptr noundef nonnull %0, i32 noundef 40) #3
  %7 = icmp eq i32 %6, -1
  br i1 %7, label %.loopexit, label %.preheader

.preheader:                                       ; preds = %4
  %8 = icmp sgt i64 %.val19, 0
  br i1 %8, label %.lr.ph, label %._crit_edge.thread

.lr.ph:                                           ; preds = %.preheader
  %9 = getelementptr inbounds nuw i8, ptr %1, i64 24
  br label %12

10:                                               ; preds = %16
  %11 = add nuw nsw i64 %.01821, 1
  %exitcond.not = icmp eq i64 %11, %.val19
  br i1 %exitcond.not, label %._crit_edge, label %12, !llvm.loop !46

12:                                               ; preds = %.lr.ph, %10
  %.01821 = phi i64 [ 0, %.lr.ph ], [ %11, %10 ]
  %.not20 = icmp eq i64 %.01821, 0
  br i1 %.not20, label %16, label %13

13:                                               ; preds = %12
  %14 = tail call i32 @PyUnicodeWriter_WriteUTF8(ptr noundef nonnull %0, ptr noundef nonnull @.str.28, i64 noundef -1) #3
  %15 = icmp eq i32 %14, -1
  br i1 %15, label %.loopexit, label %16

16:                                               ; preds = %13, %12
  %17 = getelementptr [1 x ptr], ptr %9, i64 0, i64 %.01821
  %18 = load ptr, ptr %17, align 8, !tbaa !18
  %19 = tail call fastcc i32 @append_ast_constant(ptr noundef %0, ptr noundef %18)
  %20 = icmp slt i32 %19, 0
  br i1 %20, label %.loopexit, label %10

._crit_edge:                                      ; preds = %10
  %21 = icmp eq i64 %.val19, 1
  br i1 %21, label %22, label %._crit_edge.thread

22:                                               ; preds = %._crit_edge
  %23 = tail call i32 @PyUnicodeWriter_WriteUTF8(ptr noundef nonnull %0, ptr noundef nonnull @.str.51, i64 noundef -1) #3
  %24 = icmp eq i32 %23, -1
  br i1 %24, label %.loopexit, label %._crit_edge.thread

._crit_edge.thread:                               ; preds = %.preheader, %._crit_edge, %22
  %25 = tail call i32 @PyUnicodeWriter_WriteChar(ptr noundef nonnull %0, i32 noundef 41) #3
  br label %.loopexit

26:                                               ; preds = %2
  %27 = tail call fastcc i32 @append_repr(ptr noundef %0, ptr noundef nonnull %1)
  br label %.loopexit

.loopexit:                                        ; preds = %13, %16, %._crit_edge.thread, %4, %22, %26
  %.1 = phi i32 [ %27, %26 ], [ %25, %._crit_edge.thread ], [ -1, %4 ], [ -1, %22 ], [ -1, %16 ], [ -1, %13 ]
  ret i32 %.1
}